; Function Attrs: nounwind uwtable
define noalias noundef ptr @Bbr_bddImageStart2(ptr noundef %0, ptr noundef %1, i32 noundef %2, ptr noundef readonly captures(none) %3, i32 noundef %4, ptr noundef readonly captures(none) %5, i32 noundef %6) local_unnamed_addr #0 {
  %8 = tail call noalias dereferenceable_or_null(32) ptr @malloc(i64 noundef 32) #12
  store ptr %0, ptr %8, align 8, !tbaa !92
  %9 = getelementptr inbounds nuw i8, ptr %8, i64 24
  store ptr null, ptr %9, align 8, !tbaa !94
  %10 = getelementptr inbounds nuw i8, ptr %0, i64 344
  %11 = load ptr, ptr %10, align 8, !tbaa !45
  %12 = getelementptr inbounds nuw i8, ptr %0, i64 136
  %13 = load i32, ptr %12, align 8, !tbaa !3
  %14 = getelementptr inbounds nuw i8, ptr %0, i64 40
  %15 = load ptr, ptr %14, align 8, !tbaa !39
  tail call void @Cudd_Ref(ptr noundef %15) #11
  %16 = icmp sgt i32 %13, 0
  br i1 %16, label %.lr.ph.preheader.i, label %Bbr_bddComputeCube.exit

.lr.ph.preheader.i:                               ; preds = %7
  %wide.trip.count.i = zext nneg i32 %13 to i64
  br label %.lr.ph.i

.lr.ph.i:                                         ; preds = %.lr.ph.i, %.lr.ph.preheader.i
  %indvars.iv.i = phi i64 [ 0, %.lr.ph.preheader.i ], [ %indvars.iv.next.i, %.lr.ph.i ]
  %.01314.i = phi ptr [ %15, %.lr.ph.preheader.i ], [ %19, %.lr.ph.i ]
  %17 = getelementptr inbounds nuw ptr, ptr %11, i64 %indvars.iv.i
  %18 = load ptr, ptr %17, align 8, !tbaa !26
  %19 = tail call ptr @Cudd_bddAnd(ptr noundef %0, ptr noundef %.01314.i, ptr noundef %18) #11
  tail call void @Cudd_Ref(ptr noundef %19) #11
  tail call void @Cudd_RecursiveDeref(ptr noundef %0, ptr noundef %.01314.i) #11
  %indvars.iv.next.i = add nuw nsw i64 %indvars.iv.i, 1
  %exitcond.not.i = icmp eq i64 %indvars.iv.next.i, %wide.trip.count.i
  br i1 %exitcond.not.i, label %Bbr_bddComputeCube.exit, label %.lr.ph.i, !llvm.loop !91

Bbr_bddComputeCube.exit:                          ; preds = %.lr.ph.i, %7
  %.013.lcssa.i = phi ptr [ %15, %7 ], [ %19, %.lr.ph.i ]
  tail call void @Cudd_Deref(ptr noundef %.013.lcssa.i) #11
  tail call void @Cudd_Ref(ptr noundef %.013.lcssa.i) #11
  %20 = load ptr, ptr %14, align 8, !tbaa !39
  tail call void @Cudd_Ref(ptr noundef %20) #11
  %21 = icmp sgt i32 %4, 0
  br i1 %21, label %.lr.ph.preheader.i37, label %Bbr_bddComputeCube.exit44

.lr.ph.preheader.i37:                             ; preds = %Bbr_bddComputeCube.exit
  %wide.trip.count.i38 = zext nneg i32 %4 to i64
  br label %.lr.ph.i39

.lr.ph.i39:                                       ; preds = %.lr.ph.i39, %.lr.ph.preheader.i37
  %indvars.iv.i40 = phi i64 [ 0, %.lr.ph.preheader.i37 ], [ %indvars.iv.next.i42, %.lr.ph.i39 ]
  %.01314.i41 = phi ptr [ %20, %.lr.ph.preheader.i37 ], [ %24, %.lr.ph.i39 ]
  %22 = getelementptr inbounds nuw ptr, ptr %5, i64 %indvars.iv.i40
  %23 = load ptr, ptr %22, align 8, !tbaa !26
  %24 = tail call ptr @Cudd_bddAnd(ptr noundef %0, ptr noundef %.01314.i41, ptr noundef %23) #11
  tail call void @Cudd_Ref(ptr noundef %24) #11
  tail call void @Cudd_RecursiveDeref(ptr noundef %0, ptr noundef %.01314.i41) #11
  %indvars.iv.next.i42 = add nuw nsw i64 %indvars.iv.i40, 1
  %exitcond.not.i43 = icmp eq i64 %indvars.iv.next.i42, %wide.trip.count.i38
  br i1 %exitcond.not.i43, label %Bbr_bddComputeCube.exit44, label %.lr.ph.i39, !llvm.loop !91

Bbr_bddComputeCube.exit44:                        ; preds = %.lr.ph.i39, %Bbr_bddComputeCube.exit
  %.013.lcssa.i36 = phi ptr [ %20, %Bbr_bddComputeCube.exit ], [ %24, %.lr.ph.i39 ]
  tail call void @Cudd_Deref(ptr noundef %.013.lcssa.i36) #11
  tail call void @Cudd_Ref(ptr noundef %.013.lcssa.i36) #11
  %25 = tail call ptr @Cudd_bddExistAbstract(ptr noundef %0, ptr noundef %.013.lcssa.i, ptr noundef %.013.lcssa.i36) #11
  %26 = getelementptr inbounds nuw i8, ptr %8, i64 16
  store ptr %25, ptr %26, align 8, !tbaa !95
  tail call void @Cudd_Ref(ptr noundef %25) #11
  tail call void @Cudd_RecursiveDeref(ptr noundef %0, ptr noundef %.013.lcssa.i) #11
  tail call void @Cudd_RecursiveDeref(ptr noundef %0, ptr noundef %.013.lcssa.i36) #11
  %27 = load ptr, ptr %14, align 8, !tbaa !39
  %28 = getelementptr inbounds nuw i8, ptr %8, i64 8
  store ptr %27, ptr %28, align 8, !tbaa !96
  tail call void @Cudd_Ref(ptr noundef %27) #11
  %29 = icmp sgt i32 %2, 0
  br i1 %29, label %.lr.ph, label %Bbr_bddImageCompute2.exit

.lr.ph:                                           ; preds = %Bbr_bddComputeCube.exit44
  %wide.trip.count = zext nneg i32 %2 to i64
  br label %30

30:                                               ; preds = %.lr.ph, %30
  %indvars.iv = phi i64 [ 0, %.lr.ph ], [ %indvars.iv.next, %30 ]
  %31 = phi ptr [ %27, %.lr.ph ], [ %34, %30 ]
  %32 = getelementptr inbounds nuw ptr, ptr %3, i64 %indvars.iv
  %33 = load ptr, ptr %32, align 8, !tbaa !26
  %34 = tail call ptr @Cudd_bddAnd(ptr noundef %0, ptr noundef %31, ptr noundef %33) #11
  tail call void @Cudd_Ref(ptr noundef %34) #11
  tail call void @Cudd_RecursiveDeref(ptr noundef %0, ptr noundef %31) #11
  %indvars.iv.next = add nuw nsw i64 %indvars.iv, 1
  %exitcond.not = icmp eq i64 %indvars.iv.next, %wide.trip.count
  br i1 %exitcond.not, label %.Bbr_bddImageCompute2.exit_crit_edge, label %30, !llvm.loop !97

.Bbr_bddImageCompute2.exit_crit_edge:             ; preds = %30
  store ptr %34, ptr %28, align 8
  br label %Bbr_bddImageCompute2.exit

Bbr_bddImageCompute2.exit:                        ; preds = %.Bbr_bddImageCompute2.exit_crit_edge, %Bbr_bddComputeCube.exit44
  %35 = phi ptr [ %34, %.Bbr_bddImageCompute2.exit_crit_edge ], [ %27, %Bbr_bddComputeCube.exit44 ]
  %36 = tail call ptr @Cudd_bddAndAbstract(ptr noundef %0, ptr noundef %35, ptr noundef %1, ptr noundef %25) #11
  store ptr %36, ptr %9, align 8, !tbaa !94
  tail call void @Cudd_Ref(ptr noundef %36) #11
  ret ptr %8
}